target datalayout = "e-m:e-p270:32:32-p271:32:32-p272:64:64-i64:64-i128:128-f80:128-n8:16:32:64-S128"
target triple = "x86_64-pc-linux-gnu"

%struct.MPIR_PROCDESC = type { ptr, ptr, i32 }

@MPIR_proctable = external global ptr, align 8

; Function Attrs: nounwind uwtable
define dso_local void @mpir_set_executable_names(ptr noundef %0, i32 noundef %1, i32 noundef %2) #0 {
  %4 = alloca ptr, align 8
  %5 = alloca i32, align 4
  %6 = alloca i32, align 4
  %7 = alloca i32, align 4
  store ptr %0, ptr %4, align 8
  store i32 %1, ptr %5, align 4
  store i32 %2, ptr %6, align 4
  call void @llvm.lifetime.start.p0(i64 4, ptr %7) #8
  %8 = load i32, ptr %5, align 4
  %9 = icmp eq i32 %8, -2
  br i1 %9, label %10, label %11

10:                                               ; preds = %3
  store i32 0, ptr %5, align 4
  br label %11

11:                                               ; preds = %10, %3
  %12 = load i32, ptr %5, align 4
  store i32 %12, ptr %7, align 4
  br label %13

13:                                               ; preds = %27, %11
  %14 = load i32, ptr %7, align 4
  %15 = load i32, ptr %5, align 4
  %16 = load i32, ptr %6, align 4
  %17 = add i32 %15, %16
  %18 = icmp ult i32 %14, %17
  br i1 %18, label %19, label %30

19:                                               ; preds = %13
  %20 = load ptr, ptr %4, align 8
  %21 = call ptr @xstrdup(ptr noundef %20)
  %22 = load ptr, ptr @MPIR_proctable, align 8
  %23 = load i32, ptr %7, align 4
  %24 = sext i32 %23 to i64
  %25 = getelementptr inbounds %struct.MPIR_PROCDESC, ptr %22, i64 %24
  %26 = getelementptr inbounds nuw %struct.MPIR_PROCDESC, ptr %25, i32 0, i32 1
  store ptr %21, ptr %26, align 8
  br label %27

27:                                               ; preds = %19
  %28 = load i32, ptr %7, align 4
  %29 = add nsw i32 %28, 1
  store i32 %29, ptr %7, align 4
  br label %13, !llvm.loop !17

30:                                               ; preds = %13
  call void @llvm.lifetime.end.p0(i64 4, ptr %7) #8
  ret void
}