; Function Attrs: nounwind uwtable
define dso_local void @mpir_set_executable_names(ptr noundef %0, i32 noundef %1, i32 noundef %2) local_unnamed_addr #0 {
  %4 = icmp eq i32 %1, -2
  %spec.store.select = select i1 %4, i32 0, i32 %1
  %5 = add i32 %spec.store.select, %2
  %6 = icmp ult i32 %spec.store.select, %5
  br i1 %6, label %.lr.ph.preheader, label %._crit_edge

.lr.ph.preheader:                                 ; preds = %3
  %7 = sext i32 %spec.store.select to i64
  br label %.lr.ph

.lr.ph:                                           ; preds = %.lr.ph.preheader, %.lr.ph
  %indvars.iv = phi i64 [ %7, %.lr.ph.preheader ], [ %indvars.iv.next, %.lr.ph ]
  %8 = tail call ptr @xstrdup(ptr noundef %0) #9
  %9 = load ptr, ptr @MPIR_proctable, align 8
  %10 = getelementptr inbounds %struct.MPIR_PROCDESC, ptr %9, i64 %indvars.iv, i32 1
  store ptr %8, ptr %10, align 8
  %indvars.iv.next = add nuw nsw i64 %indvars.iv, 1
  %11 = trunc nsw i64 %indvars.iv.next to i32
  %12 = icmp ugt i32 %5, %11
  br i1 %12, label %.lr.ph, label %._crit_edge, !llvm.loop !16

._crit_edge:                                      ; preds = %.lr.ph, %3
  ret void
}